; Function Attrs: mustprogress uwtable
define noundef zeroext i1 @_ZN5Ipopt16NLPBoundsRemover6Eval_hERKNS_6VectorEdS3_S3_RNS_9SymMatrixE(ptr nocapture noundef nonnull readonly align 8 dereferenceable(49) %0, ptr noundef nonnull align 8 dereferenceable(205) %1, double noundef %2, ptr noundef nonnull align 8 dereferenceable(205) %3, ptr nocapture noundef nonnull readonly align 8 dereferenceable(205) %4, ptr noundef nonnull align 8 dereferenceable(80) %5) unnamed_addr #3 align 2 personality ptr @__gxx_personality_v0 {
  %7 = getelementptr inbounds i8, ptr %4, i64 208
  %8 = load ptr, ptr %7, align 8, !noalias !46
  %9 = load ptr, ptr %8, align 8, !noalias !46
  %.not.i.i = icmp eq ptr %9, null
  br i1 %.not.i.i, label %_ZNK5Ipopt14CompoundVector9ConstCompEi.exit.i, label %_ZNK5Ipopt14CompoundVector9ConstCompEi.exit.thread.i

_ZNK5Ipopt14CompoundVector9ConstCompEi.exit.i:    ; preds = %6
  %10 = getelementptr inbounds i8, ptr %4, i64 232
  %11 = load ptr, ptr %10, align 8, !noalias !46
  %12 = load ptr, ptr %11, align 8, !noalias !46, !nonnull !49, !noundef !49
  br label %_ZNK5Ipopt14CompoundVector9ConstCompEi.exit.thread.i

_ZNK5Ipopt14CompoundVector9ConstCompEi.exit.thread.i: ; preds = %_ZNK5Ipopt14CompoundVector9ConstCompEi.exit.i, %6
  %.0.i3.i = phi ptr [ %12, %_ZNK5Ipopt14CompoundVector9ConstCompEi.exit.i ], [ %9, %6 ]
  %13 = getelementptr inbounds i8, ptr %.0.i3.i, i64 8
  %14 = load i32, ptr %13, align 8, !noalias !46
  %15 = add nsw i32 %14, 1
  store i32 %15, ptr %13, align 8, !noalias !46
  %16 = getelementptr inbounds i8, ptr %0, i64 16
  %17 = load ptr, ptr %16, align 8
  %18 = load ptr, ptr %17, align 8
  %19 = getelementptr inbounds i8, ptr %18, i64 104
  %20 = load ptr, ptr %19, align 8
  %21 = invoke noundef zeroext i1 %20(ptr noundef nonnull align 8 dereferenceable(12) %17, ptr noundef nonnull align 8 dereferenceable(205) %1, double noundef %2, ptr noundef nonnull align 8 dereferenceable(205) %3, ptr noundef nonnull align 8 dereferenceable(205) %.0.i3.i, ptr noundef nonnull align 8 dereferenceable(80) %5)
          to label %22 unwind label %30

22:                                               ; preds = %_ZNK5Ipopt14CompoundVector9ConstCompEi.exit.thread.i
  %23 = load i32, ptr %13, align 8
  %24 = add nsw i32 %23, -1
  store i32 %24, ptr %13, align 8
  %25 = icmp eq i32 %24, 0
  br i1 %25, label %26, label %_ZN5Ipopt8SmartPtrIKNS_6VectorEED2Ev.exit

26:                                               ; preds = %22
  %27 = load ptr, ptr %.0.i3.i, align 8
  %28 = getelementptr inbounds i8, ptr %27, i64 8
  %29 = load ptr, ptr %28, align 8
  tail call void %29(ptr noundef nonnull align 8 dereferenceable(205) %.0.i3.i) #12
  br label %_ZN5Ipopt8SmartPtrIKNS_6VectorEED2Ev.exit

_ZN5Ipopt8SmartPtrIKNS_6VectorEED2Ev.exit:        ; preds = %22, %26
  ret i1 %21

30:                                               ; preds = %_ZNK5Ipopt14CompoundVector9ConstCompEi.exit.thread.i
  %31 = landingpad { ptr, i32 }
          cleanup
  %32 = load i32, ptr %13, align 8
  %33 = add nsw i32 %32, -1
  store i32 %33, ptr %13, align 8
  %34 = icmp eq i32 %33, 0
  br i1 %34, label %35, label %_ZN5Ipopt8SmartPtrIKNS_6VectorEED2Ev.exit11

35:                                               ; preds = %30
  %36 = load ptr, ptr %.0.i3.i, align 8
  %37 = getelementptr inbounds i8, ptr %36, i64 8
  %38 = load ptr, ptr %37, align 8
  tail call void %38(ptr noundef nonnull align 8 dereferenceable(205) %.0.i3.i) #12
  br label %_ZN5Ipopt8SmartPtrIKNS_6VectorEED2Ev.exit11

_ZN5Ipopt8SmartPtrIKNS_6VectorEED2Ev.exit11:      ; preds = %30, %35
  resume { ptr, i32 } %31
}